target datalayout = "e-m:e-p270:32:32-p271:32:32-p272:64:64-i64:64-i128:128-f80:128-n8:16:32:64-S128"
target triple = "x86_64-pc-linux-gnu"

%struct.ossl_store_loader_st = type { ptr, ptr, ptr, ptr, ptr, ptr, ptr, ptr, ptr, ptr, ptr, ptr, ptr, i32, ptr, ptr, %struct.CRYPTO_REF_COUNT, ptr, ptr, ptr, ptr, ptr, ptr, ptr, ptr, ptr, ptr }
%struct.CRYPTO_REF_COUNT = type { i32 }

@.str = private unnamed_addr constant [41 x i8] c"../openssl/crypto/store/store_register.c\00", align 1
@__func__.OSSL_STORE_LOADER_new = private unnamed_addr constant [22 x i8] c"OSSL_STORE_LOADER_new\00", align 1

; Function Attrs: nounwind uwtable
define ptr @OSSL_STORE_LOADER_new(ptr noundef %0, ptr noundef %1) #0 {
  %3 = alloca ptr, align 8
  %4 = alloca ptr, align 8
  %5 = alloca ptr, align 8
  %6 = alloca ptr, align 8
  %7 = alloca i32, align 4
  store ptr %0, ptr %4, align 8, !tbaa !3
  store ptr %1, ptr %5, align 8, !tbaa !8
  call void @llvm.lifetime.start.p0(i64 8, ptr %6) #5
  store ptr null, ptr %6, align 8, !tbaa !10
  %8 = load ptr, ptr %5, align 8, !tbaa !8
  %9 = icmp eq ptr %8, null
  br i1 %9, label %10, label %11

10:                                               ; preds = %2
  call void @ERR_new()
  call void @ERR_set_debug(ptr noundef @.str, i32 noundef 42, ptr noundef @__func__.OSSL_STORE_LOADER_new)
  call void (i32, i32, ptr, ...) @ERR_set_error(i32 noundef 44, i32 noundef 106, ptr noundef null)
  store ptr null, ptr %3, align 8
  store i32 1, ptr %7, align 4
  br label %23

11:                                               ; preds = %2
  %12 = call noalias ptr @CRYPTO_zalloc(i64 noundef 216, ptr noundef @.str, i32 noundef 46)
  store ptr %12, ptr %6, align 8, !tbaa !10
  %13 = icmp eq ptr %12, null
  br i1 %13, label %14, label %15

14:                                               ; preds = %11
  store ptr null, ptr %3, align 8
  store i32 1, ptr %7, align 4
  br label %23

15:                                               ; preds = %11
  %16 = load ptr, ptr %4, align 8, !tbaa !3
  %17 = load ptr, ptr %6, align 8, !tbaa !10
  %18 = getelementptr inbounds nuw %struct.ossl_store_loader_st, ptr %17, i32 0, i32 1
  store ptr %16, ptr %18, align 8, !tbaa !12
  %19 = load ptr, ptr %5, align 8, !tbaa !8
  %20 = load ptr, ptr %6, align 8, !tbaa !10
  %21 = getelementptr inbounds nuw %struct.ossl_store_loader_st, ptr %20, i32 0, i32 0
  store ptr %19, ptr %21, align 8, !tbaa !17
  %22 = load ptr, ptr %6, align 8, !tbaa !10
  store ptr %22, ptr %3, align 8
  store i32 1, ptr %7, align 4
  br label %23

23:                                               ; preds = %15, %14, %10
  call void @llvm.lifetime.end.p0(i64 8, ptr %6) #5
  %24 = load ptr, ptr %3, align 8
  ret ptr %24
}