; Function Attrs: nounwind uwtable
define noalias ptr @OSSL_STORE_LOADER_new(ptr noundef %0, ptr noundef %1) local_unnamed_addr #0 {
  %3 = icmp eq ptr %1, null
  br i1 %3, label %4, label %5

4:                                                ; preds = %2
  tail call void @ERR_new() #9
  tail call void @ERR_set_debug(ptr noundef nonnull @.str, i32 noundef 42, ptr noundef nonnull @__func__.OSSL_STORE_LOADER_new) #9
  tail call void (i32, i32, ptr, ...) @ERR_set_error(i32 noundef 44, i32 noundef 106, ptr noundef null) #9
  br label %10

5:                                                ; preds = %2
  %6 = tail call noalias ptr @CRYPTO_zalloc(i64 noundef 216, ptr noundef nonnull @.str, i32 noundef 46) #9
  %7 = icmp eq ptr %6, null
  br i1 %7, label %10, label %8

8:                                                ; preds = %5
  %9 = getelementptr inbounds nuw i8, ptr %6, i64 8
  store ptr %0, ptr %9, align 8, !tbaa !3
  store ptr %1, ptr %6, align 8, !tbaa !13
  br label %10

10:                                               ; preds = %5, %8, %4
  %.0 = phi ptr [ null, %4 ], [ %6, %8 ], [ null, %5 ]
  ret ptr %.0
}